target datalayout = "e-m:e-p270:32:32-p271:32:32-p272:64:64-i64:64-i128:128-f80:128-n8:16:32:64-S128"
target triple = "x86_64-pc-linux-gnu"

%struct.UDataInfo = type { i16, i16, i8, i8, i8, i8, [4 x i8], [4 x i8], [4 x i8] }

; Function Attrs: mustprogress nounwind uwtable
define internal noundef signext i8 @_ZL12isAcceptablePvPKcS1_PK9UDataInfo(ptr noundef %0, ptr noundef %1, ptr noundef %2, ptr noundef %3) #0 {
  %5 = alloca ptr, align 8
  %6 = alloca ptr, align 8
  %7 = alloca ptr, align 8
  %8 = alloca ptr, align 8
  store ptr %0, ptr %5, align 8, !tbaa !17
  store ptr %1, ptr %6, align 8, !tbaa !3
  store ptr %2, ptr %7, align 8, !tbaa !3
  store ptr %3, ptr %8, align 8, !tbaa !17
  %9 = load ptr, ptr %8, align 8, !tbaa !17
  %10 = getelementptr inbounds nuw %struct.UDataInfo, ptr %9, i32 0, i32 0
  %11 = load i16, ptr %10, align 2, !tbaa !108
  %12 = zext i16 %11 to i32
  %13 = icmp sge i32 %12, 20
  br i1 %13, label %14, label %61

14:                                               ; preds = %4
  %15 = load ptr, ptr %8, align 8, !tbaa !17
  %16 = getelementptr inbounds nuw %struct.UDataInfo, ptr %15, i32 0, i32 2
  %17 = load i8, ptr %16, align 2, !tbaa !110
  %18 = zext i8 %17 to i32
  %19 = icmp eq i32 %18, 0
  br i1 %19, label %20, label %61

20:                                               ; preds = %14
  %21 = load ptr, ptr %8, align 8, !tbaa !17
  %22 = getelementptr inbounds nuw %struct.UDataInfo, ptr %21, i32 0, i32 3
  %23 = load i8, ptr %22, align 1, !tbaa !111
  %24 = zext i8 %23 to i32
  %25 = icmp eq i32 %24, 0
  br i1 %25, label %26, label %61

26:                                               ; preds = %20
  %27 = load ptr, ptr %8, align 8, !tbaa !17
  %28 = getelementptr inbounds nuw %struct.UDataInfo, ptr %27, i32 0, i32 6
  %29 = getelementptr inbounds [4 x i8], ptr %28, i64 0, i64 0
  %30 = load i8, ptr %29, align 2, !tbaa !8
  %31 = zext i8 %30 to i32
  %32 = icmp eq i32 %31, 67
  br i1 %32, label %33, label %61

33:                                               ; preds = %26
  %34 = load ptr, ptr %8, align 8, !tbaa !17
  %35 = getelementptr inbounds nuw %struct.UDataInfo, ptr %34, i32 0, i32 6
  %36 = getelementptr inbounds [4 x i8], ptr %35, i64 0, i64 1
  %37 = load i8, ptr %36, align 1, !tbaa !8
  %38 = zext i8 %37 to i32
  %39 = icmp eq i32 %38, 118
  br i1 %39, label %40, label %61

40:                                               ; preds = %33
  %41 = load ptr, ptr %8, align 8, !tbaa !17
  %42 = getelementptr inbounds nuw %struct.UDataInfo, ptr %41, i32 0, i32 6
  %43 = getelementptr inbounds [4 x i8], ptr %42, i64 0, i64 2
  %44 = load i8, ptr %43, align 2, !tbaa !8
  %45 = zext i8 %44 to i32
  %46 = icmp eq i32 %45, 65
  br i1 %46, label %47, label %61

47:                                               ; preds = %40
  %48 = load ptr, ptr %8, align 8, !tbaa !17
  %49 = getelementptr inbounds nuw %struct.UDataInfo, ptr %48, i32 0, i32 6
  %50 = getelementptr inbounds [4 x i8], ptr %49, i64 0, i64 3
  %51 = load i8, ptr %50, align 1, !tbaa !8
  %52 = zext i8 %51 to i32
  %53 = icmp eq i32 %52, 108
  br i1 %53, label %54, label %61

54:                                               ; preds = %47
  %55 = load ptr, ptr %8, align 8, !tbaa !17
  %56 = getelementptr inbounds nuw %struct.UDataInfo, ptr %55, i32 0, i32 7
  %57 = getelementptr inbounds [4 x i8], ptr %56, i64 0, i64 0
  %58 = load i8, ptr %57, align 2, !tbaa !8
  %59 = zext i8 %58 to i32
  %60 = icmp eq i32 %59, 3
  br label %61

61:                                               ; preds = %54, %47, %40, %33, %26, %20, %14, %4
  %62 = phi i1 [ false, %47 ], [ false, %40 ], [ false, %33 ], [ false, %26 ], [ false, %20 ], [ false, %14 ], [ false, %4 ], [ %60, %54 ]
  %63 = zext i1 %62 to i8
  ret i8 %63
}